target datalayout = "e-m:e-p270:32:32-p271:32:32-p272:64:64-i64:64-i128:128-f80:128-n8:16:32:64-S128"
target triple = "x86_64-pc-linux-gnu"

%struct.expert_field = type { i32, i32 }

@ei_gsm_a_bssmap_extraneous_data = internal global %struct.expert_field zeroinitializer, align 4
@.str.137 = private unnamed_addr constant [1 x i8] zeroinitializer, align 1
@ei_gsm_a_bssmap_missing_mandatory_element = internal global %struct.expert_field zeroinitializer, align 4
@.str.139 = private unnamed_addr constant [71 x i8] c"Missing Mandatory element (0x%02x) %s%s, rest of dissection is suspect\00", align 1

; Function Attrs: null_pointer_is_valid sspstrong uwtable
define internal void @bssmap_reset_cct(ptr noundef %0, ptr noundef %1, ptr noundef %2, i32 noundef %3, i32 noundef %4) #1 {
  %6 = alloca ptr, align 8
  %7 = alloca ptr, align 8
  %8 = alloca ptr, align 8
  %9 = alloca i32, align 4
  %10 = alloca i32, align 4
  %11 = alloca i32, align 4
  %12 = alloca i32, align 4
  %13 = alloca i32, align 4
  store ptr %0, ptr %6, align 8
  store ptr %1, ptr %7, align 8
  store ptr %2, ptr %8, align 8
  store i32 %3, ptr %9, align 4
  store i32 %4, ptr %10, align 4
  call void @llvm.lifetime.start.p0(i64 4, ptr %11) #5
  call void @llvm.lifetime.start.p0(i64 4, ptr %12) #5
  call void @llvm.lifetime.start.p0(i64 4, ptr %13) #5
  %14 = load i32, ptr %9, align 4
  store i32 %14, ptr %11, align 4
  %15 = load i32, ptr %10, align 4
  store i32 %15, ptr %13, align 4
  %16 = load i32, ptr %13, align 4
  %17 = icmp sgt i32 %16, 0
  br i1 %17, label %18, label %33

18:                                               ; preds = %5
  %19 = load ptr, ptr %6, align 8
  %20 = load ptr, ptr %7, align 8
  %21 = load ptr, ptr %8, align 8
  %22 = load i32, ptr %11, align 4
  %23 = call zeroext i16 @elem_tv(ptr noundef %19, ptr noundef %20, ptr noundef %21, i8 noundef zeroext 1, i32 noundef 0, i32 noundef 1, i32 noundef %22, ptr noundef null)
  %24 = zext i16 %23 to i32
  store i32 %24, ptr %12, align 4
  %25 = icmp ugt i32 %24, 0
  br i1 %25, label %26, label %33

26:                                               ; preds = %18
  %27 = load i32, ptr %12, align 4
  %28 = load i32, ptr %11, align 4
  %29 = add i32 %28, %27
  store i32 %29, ptr %11, align 4
  %30 = load i32, ptr %12, align 4
  %31 = load i32, ptr %13, align 4
  %32 = sub i32 %31, %30
  store i32 %32, ptr %13, align 4
  br label %40

33:                                               ; preds = %18, %5
  %34 = load ptr, ptr %7, align 8
  %35 = load ptr, ptr %8, align 8
  %36 = load ptr, ptr %6, align 8
  %37 = load i32, ptr %11, align 4
  %38 = call ptr @get_gsm_a_msg_string(i32 noundef 0, i32 noundef 1)
  %39 = call ptr (ptr, ptr, ptr, ptr, i32, i32, ptr, ...) @proto_tree_add_expert_format(ptr noundef %34, ptr noundef %35, ptr noundef @ei_gsm_a_bssmap_missing_mandatory_element, ptr noundef %36, i32 noundef %37, i32 noundef 0, ptr noundef @.str.139, i32 noundef 1, ptr noundef %38, ptr noundef @.str.137)
  br label %40

40:                                               ; preds = %33, %26
  %41 = load i32, ptr %13, align 4
  %42 = icmp sgt i32 %41, 0
  br i1 %42, label %43, label %59

43:                                               ; preds = %40
  %44 = load ptr, ptr %6, align 8
  %45 = load ptr, ptr %7, align 8
  %46 = load ptr, ptr %8, align 8
  %47 = load i32, ptr %11, align 4
  %48 = load i32, ptr %13, align 4
  %49 = call zeroext i16 @elem_tlv(ptr noundef %44, ptr noundef %45, ptr noundef %46, i8 noundef zeroext 4, i32 noundef 0, i32 noundef 4, i32 noundef %47, i32 noundef %48, ptr noundef null)
  %50 = zext i16 %49 to i32
  store i32 %50, ptr %12, align 4
  %51 = icmp ugt i32 %50, 0
  br i1 %51, label %52, label %59

52:                                               ; preds = %43
  %53 = load i32, ptr %12, align 4
  %54 = load i32, ptr %11, align 4
  %55 = add i32 %54, %53
  store i32 %55, ptr %11, align 4
  %56 = load i32, ptr %12, align 4
  %57 = load i32, ptr %13, align 4
  %58 = sub i32 %57, %56
  store i32 %58, ptr %13, align 4
  br label %66

59:                                               ; preds = %43, %40
  %60 = load ptr, ptr %7, align 8
  %61 = load ptr, ptr %8, align 8
  %62 = load ptr, ptr %6, align 8
  %63 = load i32, ptr %11, align 4
  %64 = call ptr @get_gsm_a_msg_string(i32 noundef 0, i32 noundef 4)
  %65 = call ptr (ptr, ptr, ptr, ptr, i32, i32, ptr, ...) @proto_tree_add_expert_format(ptr noundef %60, ptr noundef %61, ptr noundef @ei_gsm_a_bssmap_missing_mandatory_element, ptr noundef %62, i32 noundef %63, i32 noundef 0, ptr noundef @.str.139, i32 noundef 4, ptr noundef %64, ptr noundef @.str.137)
  br label %66

66:                                               ; preds = %59, %52
  %67 = load i32, ptr %13, align 4
  %68 = icmp ugt i32 %67, 0
  br i1 %68, label %69, label %81

69:                                               ; preds = %66
  %70 = load ptr, ptr %7, align 8
  %71 = load ptr, ptr %8, align 8
  %72 = load ptr, ptr %6, align 8
  %73 = load i32, ptr %11, align 4
  %74 = load i32, ptr %13, align 4
  %75 = sub i32 %74, 0
  %76 = call ptr @proto_tree_add_expert(ptr noundef %70, ptr noundef %71, ptr noundef @ei_gsm_a_bssmap_extraneous_data, ptr noundef %72, i32 noundef %73, i32 noundef %75)
  %77 = load i32, ptr %13, align 4
  %78 = sub i32 %77, 0
  %79 = load i32, ptr %11, align 4
  %80 = add i32 %79, %78
  store i32 %80, ptr %11, align 4
  br label %81

81:                                               ; preds = %69, %66
  call void @llvm.lifetime.end.p0(i64 4, ptr %13) #5
  call void @llvm.lifetime.end.p0(i64 4, ptr %12) #5
  call void @llvm.lifetime.end.p0(i64 4, ptr %11) #5
  ret void
}